target datalayout = "e-m:e-p270:32:32-p271:32:32-p272:64:64-i64:64-i128:128-f80:128-n8:16:32:64-S128"
target triple = "x86_64-pc-linux-gnu"

%struct._object = type { %union.anon, ptr }
%union.anon = type { i64 }
%struct.ProfilerObject = type { %struct._object, ptr, ptr, ptr, i32, ptr, double, i32, ptr }
%struct._ProfilerEntry = type { %struct.rotating_node_s, ptr, i64, i64, i64, i64, i64, ptr }
%struct.rotating_node_s = type { ptr, ptr, ptr }
%struct._ProfilerSubEntry = type { %struct.rotating_node_s, i64, i64, i64, i64, i64 }
%struct._ProfilerContext = type { i64, i64, ptr, ptr }

; Function Attrs: nounwind uwtable
define internal ptr @getSubEntry(ptr noundef %0, ptr noundef %1, ptr noundef %2) #0 {
  %4 = alloca ptr, align 8
  %5 = alloca ptr, align 8
  %6 = alloca ptr, align 8
  store ptr %0, ptr %4, align 8, !tbaa !24
  store ptr %1, ptr %5, align 8, !tbaa !66
  store ptr %2, ptr %6, align 8, !tbaa !66
  %7 = load ptr, ptr %5, align 8, !tbaa !66
  %8 = getelementptr inbounds nuw %struct._ProfilerEntry, ptr %7, i32 0, i32 7
  %9 = load ptr, ptr %6, align 8, !tbaa !66
  %10 = call ptr @RotatingTree_Get(ptr noundef %8, ptr noundef %9)
  ret ptr %10
}

; Function Attrs: nounwind uwtable
define internal void @Stop(ptr noundef %0, ptr noundef %1, ptr noundef %2) #0 {
  %4 = alloca ptr, align 8
  %5 = alloca ptr, align 8
  %6 = alloca ptr, align 8
  %7 = alloca i64, align 8
  %8 = alloca i64, align 8
  %9 = alloca ptr, align 8
  %10 = alloca ptr, align 8
  store ptr %0, ptr %4, align 8, !tbaa !24
  store ptr %1, ptr %5, align 8, !tbaa !93
  store ptr %2, ptr %6, align 8, !tbaa !66
  call void @llvm.lifetime.start.p0(i64 8, ptr %7) #6
  %11 = load ptr, ptr %4, align 8, !tbaa !24
  %12 = call i64 @call_timer(ptr noundef %11)
  %13 = load ptr, ptr %5, align 8, !tbaa !93
  %14 = getelementptr inbounds nuw %struct._ProfilerContext, ptr %13, i32 0, i32 0
  %15 = load i64, ptr %14, align 8, !tbaa !98
  %16 = sub i64 %12, %15
  store i64 %16, ptr %7, align 8, !tbaa !40
  call void @llvm.lifetime.start.p0(i64 8, ptr %8) #6
  %17 = load i64, ptr %7, align 8, !tbaa !40
  %18 = load ptr, ptr %5, align 8, !tbaa !93
  %19 = getelementptr inbounds nuw %struct._ProfilerContext, ptr %18, i32 0, i32 1
  %20 = load i64, ptr %19, align 8, !tbaa !99
  %21 = sub i64 %17, %20
  store i64 %21, ptr %8, align 8, !tbaa !40
  %22 = load ptr, ptr %5, align 8, !tbaa !93
  %23 = getelementptr inbounds nuw %struct._ProfilerContext, ptr %22, i32 0, i32 2
  %24 = load ptr, ptr %23, align 8, !tbaa !96
  %25 = icmp ne ptr %24, null
  br i1 %25, label %26, label %34

26:                                               ; preds = %3
  %27 = load i64, ptr %7, align 8, !tbaa !40
  %28 = load ptr, ptr %5, align 8, !tbaa !93
  %29 = getelementptr inbounds nuw %struct._ProfilerContext, ptr %28, i32 0, i32 2
  %30 = load ptr, ptr %29, align 8, !tbaa !96
  %31 = getelementptr inbounds nuw %struct._ProfilerContext, ptr %30, i32 0, i32 1
  %32 = load i64, ptr %31, align 8, !tbaa !99
  %33 = add i64 %32, %27
  store i64 %33, ptr %31, align 8, !tbaa !99
  br label %34

34:                                               ; preds = %26, %3
  %35 = load ptr, ptr %5, align 8, !tbaa !93
  %36 = getelementptr inbounds nuw %struct._ProfilerContext, ptr %35, i32 0, i32 2
  %37 = load ptr, ptr %36, align 8, !tbaa !96
  %38 = load ptr, ptr %4, align 8, !tbaa !24
  %39 = getelementptr inbounds nuw %struct.ProfilerObject, ptr %38, i32 0, i32 2
  store ptr %37, ptr %39, align 8, !tbaa !92
  %40 = load ptr, ptr %6, align 8, !tbaa !66
  %41 = getelementptr inbounds nuw %struct._ProfilerEntry, ptr %40, i32 0, i32 6
  %42 = load i64, ptr %41, align 8, !tbaa !100
  %43 = add i64 %42, -1
  store i64 %43, ptr %41, align 8, !tbaa !100
  %44 = icmp eq i64 %43, 0
  br i1 %44, label %45, label %51

45:                                               ; preds = %34
  %46 = load i64, ptr %7, align 8, !tbaa !40
  %47 = load ptr, ptr %6, align 8, !tbaa !66
  %48 = getelementptr inbounds nuw %struct._ProfilerEntry, ptr %47, i32 0, i32 2
  %49 = load i64, ptr %48, align 8, !tbaa !75
  %50 = add i64 %49, %46
  store i64 %50, ptr %48, align 8, !tbaa !75
  br label %56

51:                                               ; preds = %34
  %52 = load ptr, ptr %6, align 8, !tbaa !66
  %53 = getelementptr inbounds nuw %struct._ProfilerEntry, ptr %52, i32 0, i32 5
  %54 = load i64, ptr %53, align 8, !tbaa !74
  %55 = add i64 %54, 1
  store i64 %55, ptr %53, align 8, !tbaa !74
  br label %56

56:                                               ; preds = %51, %45
  %57 = load i64, ptr %8, align 8, !tbaa !40
  %58 = load ptr, ptr %6, align 8, !tbaa !66
  %59 = getelementptr inbounds nuw %struct._ProfilerEntry, ptr %58, i32 0, i32 3
  %60 = load i64, ptr %59, align 8, !tbaa !76
  %61 = add i64 %60, %57
  store i64 %61, ptr %59, align 8, !tbaa !76
  %62 = load ptr, ptr %6, align 8, !tbaa !66
  %63 = getelementptr inbounds nuw %struct._ProfilerEntry, ptr %62, i32 0, i32 4
  %64 = load i64, ptr %63, align 8, !tbaa !68
  %65 = add i64 %64, 1
  store i64 %65, ptr %63, align 8, !tbaa !68
  %66 = load ptr, ptr %4, align 8, !tbaa !24
  %67 = getelementptr inbounds nuw %struct.ProfilerObject, ptr %66, i32 0, i32 4
  %68 = load i32, ptr %67, align 8, !tbaa !31
  %69 = and i32 %68, 2
  %70 = icmp ne i32 %69, 0
  br i1 %70, label %71, label %116

71:                                               ; preds = %56
  %72 = load ptr, ptr %5, align 8, !tbaa !93
  %73 = getelementptr inbounds nuw %struct._ProfilerContext, ptr %72, i32 0, i32 2
  %74 = load ptr, ptr %73, align 8, !tbaa !96
  %75 = icmp ne ptr %74, null
  br i1 %75, label %76, label %116

76:                                               ; preds = %71
  call void @llvm.lifetime.start.p0(i64 8, ptr %9) #6
  %77 = load ptr, ptr %5, align 8, !tbaa !93
  %78 = getelementptr inbounds nuw %struct._ProfilerContext, ptr %77, i32 0, i32 2
  %79 = load ptr, ptr %78, align 8, !tbaa !96
  %80 = getelementptr inbounds nuw %struct._ProfilerContext, ptr %79, i32 0, i32 3
  %81 = load ptr, ptr %80, align 8, !tbaa !94
  store ptr %81, ptr %9, align 8, !tbaa !66
  call void @llvm.lifetime.start.p0(i64 8, ptr %10) #6
  %82 = load ptr, ptr %4, align 8, !tbaa !24
  %83 = load ptr, ptr %9, align 8, !tbaa !66
  %84 = load ptr, ptr %6, align 8, !tbaa !66
  %85 = call ptr @getSubEntry(ptr noundef %82, ptr noundef %83, ptr noundef %84)
  store ptr %85, ptr %10, align 8, !tbaa !77
  %86 = load ptr, ptr %10, align 8, !tbaa !77
  %87 = icmp ne ptr %86, null
  br i1 %87, label %88, label %115

88:                                               ; preds = %76
  %89 = load ptr, ptr %10, align 8, !tbaa !77
  %90 = getelementptr inbounds nuw %struct._ProfilerSubEntry, ptr %89, i32 0, i32 5
  %91 = load i64, ptr %90, align 8, !tbaa !101
  %92 = add i64 %91, -1
  store i64 %92, ptr %90, align 8, !tbaa !101
  %93 = icmp eq i64 %92, 0
  br i1 %93, label %94, label %100

94:                                               ; preds = %88
  %95 = load i64, ptr %7, align 8, !tbaa !40
  %96 = load ptr, ptr %10, align 8, !tbaa !77
  %97 = getelementptr inbounds nuw %struct._ProfilerSubEntry, ptr %96, i32 0, i32 1
  %98 = load i64, ptr %97, align 8, !tbaa !83
  %99 = add i64 %98, %95
  store i64 %99, ptr %97, align 8, !tbaa !83
  br label %105

100:                                              ; preds = %88
  %101 = load ptr, ptr %10, align 8, !tbaa !77
  %102 = getelementptr inbounds nuw %struct._ProfilerSubEntry, ptr %101, i32 0, i32 4
  %103 = load i64, ptr %102, align 8, !tbaa !82
  %104 = add i64 %103, 1
  store i64 %104, ptr %102, align 8, !tbaa !82
  br label %105

105:                                              ; preds = %100, %94
  %106 = load i64, ptr %8, align 8, !tbaa !40
  %107 = load ptr, ptr %10, align 8, !tbaa !77
  %108 = getelementptr inbounds nuw %struct._ProfilerSubEntry, ptr %107, i32 0, i32 2
  %109 = load i64, ptr %108, align 8, !tbaa !84
  %110 = add i64 %109, %106
  store i64 %110, ptr %108, align 8, !tbaa !84
  %111 = load ptr, ptr %10, align 8, !tbaa !77
  %112 = getelementptr inbounds nuw %struct._ProfilerSubEntry, ptr %111, i32 0, i32 3
  %113 = load i64, ptr %112, align 8, !tbaa !81
  %114 = add i64 %113, 1
  store i64 %114, ptr %112, align 8, !tbaa !81
  br label %115

115:                                              ; preds = %105, %76
  call void @llvm.lifetime.end.p0(i64 8, ptr %10) #6
  call void @llvm.lifetime.end.p0(i64 8, ptr %9) #6
  br label %116

116:                                              ; preds = %115, %71, %56
  call void @llvm.lifetime.end.p0(i64 8, ptr %8) #6
  call void @llvm.lifetime.end.p0(i64 8, ptr %7) #6
  ret void
}