; Function Attrs: nounwind uwtable
define internal fastcc void @Stop(ptr noundef captures(none) %0, ptr noundef nonnull readonly captures(none) %1, ptr noundef nonnull %2) unnamed_addr #0 {
  %4 = tail call fastcc i64 @call_timer(ptr noundef %0)
  %5 = load i64, ptr %1, align 8, !tbaa !91
  %6 = sub i64 %4, %5
  %7 = getelementptr inbounds nuw i8, ptr %1, i64 8
  %8 = load i64, ptr %7, align 8, !tbaa !92
  %9 = sub i64 %6, %8
  %10 = getelementptr inbounds nuw i8, ptr %1, i64 16
  %11 = load ptr, ptr %10, align 8, !tbaa !35
  %.not = icmp eq ptr %11, null
  br i1 %.not, label %16, label %12

12:                                               ; preds = %3
  %13 = getelementptr inbounds nuw i8, ptr %11, i64 8
  %14 = load i64, ptr %13, align 8, !tbaa !92
  %15 = add i64 %14, %6
  store i64 %15, ptr %13, align 8, !tbaa !92
  br label %16

16:                                               ; preds = %12, %3
  %17 = getelementptr inbounds nuw i8, ptr %0, i64 24
  store ptr %11, ptr %17, align 8, !tbaa !31
  %18 = getelementptr inbounds nuw i8, ptr %2, i64 64
  %19 = load i64, ptr %18, align 8, !tbaa !93
  %20 = add i64 %19, -1
  store i64 %20, ptr %18, align 8, !tbaa !93
  %21 = icmp eq i64 %20, 0
  %. = select i1 %21, i64 32, i64 56
  %.42 = select i1 %21, i64 %6, i64 1
  %22 = getelementptr inbounds nuw i8, ptr %2, i64 %.
  %23 = load i64, ptr %22, align 8, !tbaa !94
  %24 = add i64 %23, %.42
  store i64 %24, ptr %22, align 8, !tbaa !94
  %25 = getelementptr inbounds nuw i8, ptr %2, i64 40
  %26 = load i64, ptr %25, align 8, !tbaa !84
  %27 = add i64 %26, %9
  store i64 %27, ptr %25, align 8, !tbaa !84
  %28 = getelementptr inbounds nuw i8, ptr %2, i64 48
  %29 = load i64, ptr %28, align 8, !tbaa !76
  %30 = add i64 %29, 1
  store i64 %30, ptr %28, align 8, !tbaa !76
  %31 = getelementptr inbounds nuw i8, ptr %0, i64 40
  %32 = load i32, ptr %31, align 8, !tbaa !26
  %33 = and i32 %32, 2
  %.not31 = icmp eq i32 %33, 0
  %brmerge = or i1 %.not, %.not31
  br i1 %brmerge, label %53, label %34

34:                                               ; preds = %16
  %35 = getelementptr inbounds nuw i8, ptr %11, i64 24
  %36 = load ptr, ptr %35, align 8, !tbaa !32
  %37 = getelementptr inbounds nuw i8, ptr %36, i64 72
  %38 = tail call ptr @RotatingTree_Get(ptr noundef nonnull %37, ptr noundef nonnull %2) #5
  %.not33 = icmp eq ptr %38, null
  br i1 %.not33, label %53, label %39

39:                                               ; preds = %34
  %40 = getelementptr inbounds nuw i8, ptr %38, i64 56
  %41 = load i64, ptr %40, align 8, !tbaa !95
  %42 = add i64 %41, -1
  store i64 %42, ptr %40, align 8, !tbaa !95
  %43 = icmp eq i64 %42, 0
  %.43 = select i1 %43, i64 24, i64 48
  %.44 = select i1 %43, i64 %6, i64 1
  %44 = getelementptr inbounds nuw i8, ptr %38, i64 %.43
  %45 = load i64, ptr %44, align 8, !tbaa !94
  %46 = add i64 %45, %.44
  store i64 %46, ptr %44, align 8, !tbaa !94
  %47 = getelementptr inbounds nuw i8, ptr %38, i64 32
  %48 = load i64, ptr %47, align 8, !tbaa !90
  %49 = add i64 %48, %9
  store i64 %49, ptr %47, align 8, !tbaa !90
  %50 = getelementptr inbounds nuw i8, ptr %38, i64 40
  %51 = load i64, ptr %50, align 8, !tbaa !87
  %52 = add i64 %51, 1
  store i64 %52, ptr %50, align 8, !tbaa !87
  br label %53

53:                                               ; preds = %16, %34, %39
  ret void
}